#include <math.h>
#include <stdio.h>
#include <stdlib.h>
#include <string.h>

void main()
{
	int n,i,a[20005],del,j;
	scanf("%d",&n);
	for(i=1;i<=n;i++)
	{
		scanf("%d",&a[i]);
	}
	for(i=1;i<=n;i++)
	{
		del=a[i];
		if(a[i]>=10)
		{
			if(i==1)
			{
				printf("%d",a[1]);
			}
			else
			{
				printf(" %d",a[i]);
			}
		}
		for(j=i+1;j<=n;j++)
		{
			if(a[j]==a[i])
			{
				a[j]=0;
			}
		}
	}
}